_ZNK3xla3cpu13CpuExecutable16ir_module_stringEv|xla::cpu::CpuExecutable::ir_module_string
_ZN3xla3cpu9IrEmitter31AddAliasingInformationToIrArrayERKNS_14HloInstructionEPNS_7llvm_ir7IrArrayE|xla::cpu::IrEmitter::AddAliasingInformationToIrArray
_ZN3xla3cpu9IrEmitter20GetProfileCounterForERKNS_14HloInstructionE|xla::cpu::IrEmitter::GetProfileCounterFor
_ZN3xla3cpu9IrEmitterC1ERKS1_|xla::cpu::IrEmitter::IrEmitter
_ZNK3xla3cpu9IrEmitter25ShouldEmitParallelLoopForERKNS_14HloInstructionE|xla::cpu::IrEmitter::ShouldEmitParallelLoopFor
_ZN3xla3cpu9IrEmitter10ir_builderEv|xla::cpu::IrEmitter::ir_builder
_ZN3xla3cpu10IrFunction20exec_run_options_argEv|xla::cpu::IrFunction::exec_run_options_arg
_ZN3xla3cpu10IrFunction8functionEv|xla::cpu::IrFunction::function
_ZN3xla3cpu10IrFunction14parameters_argEv|xla::cpu::IrFunction::parameters_arg
_ZN3xla3cpu10IrFunction20profile_counters_argEv|xla::cpu::IrFunction::profile_counters_arg
_ZN3xla3cpu10IrFunction10result_argEv|xla::cpu::IrFunction::result_arg
_ZN3xla3cpu10IrFunction16temp_buffers_argEv|xla::cpu::IrFunction::temp_buffers_arg
_ZNK3xla3cpu21ParallelCpuExecutable16ir_module_stringEv|xla::cpu::ParallelCpuExecutable::ir_module_string
_ZN3xla7llvm_ir7IrArray21AddAliasScopeMetadataEPN4llvm6MDNodeE|xla::llvm_ir::IrArray::AddAliasScopeMetadata
_ZN3xla7llvm_ir7IrArray11AddMetadataEiPN4llvm6MDNodeE|xla::llvm_ir::IrArray::AddMetadata
_ZN3xla7llvm_ir7IrArray18AddNoaliasMetadataEPN4llvm6MDNodeE|xla::llvm_ir::IrArray::AddNoaliasMetadata
_ZNK3xla7llvm_ir7IrArray14GetBasePointerEv|xla::llvm_ir::IrArray::GetBasePointer
_ZNK3xla7llvm_ir7IrArray18GetElementLlvmTypeEv|xla::llvm_ir::IrArray::GetElementLlvmType
_ZNK3xla7llvm_ir7IrArray8GetShapeEv|xla::llvm_ir::IrArray::GetShape
_ZN3xla7llvm_ir7IrArrayC1Ev|xla::llvm_ir::IrArray::IrArray
_ZN3xla7llvm_ir7IrArray29MarkInvariantOverWholeProgramEPN4llvm11LLVMContextE|xla::llvm_ir::IrArray::MarkInvariantOverWholeProgram
_ZNK3xla7llvm_ir7IrArray8metadataEv|xla::llvm_ir::IrArray::metadata
_ZNK3xla3cpu20VectorSupportLibrary10ir_builderEv|xla::cpu::VectorSupportLibrary::ir_builder
_ZNK3xla18ElementalIrEmitter10ir_builderEv|xla::ElementalIrEmitter::ir_builder
_ZN3xla3cpu9IrEmitter30AttachAlignmentMetadataForLoadEPN4llvm8LoadInstERKNS_5ShapeE|xla::cpu::IrEmitter::AttachAlignmentMetadataForLoad
_ZN3xla3cpu9IrEmitter36AttachDereferenceableMetadataForLoadEPN4llvm8LoadInstERKNS_5ShapeE|xla::cpu::IrEmitter::AttachDereferenceableMetadataForLoad
_ZNK3xla3cpu9IrEmitter10ByteSizeOfERKNS_5ShapeE|xla::cpu::IrEmitter::ByteSizeOf
_ZN3xla3cpu9IrEmitter23CreateShardedVectorTypeENS_13PrimitiveTypeEj|xla::cpu::IrEmitter::CreateShardedVectorType
_ZN3xla3cpu9IrEmitter13DefaultActionEPNS_14HloInstructionE|xla::cpu::IrEmitter::DefaultAction
_ZN3xla3cpu9IrEmitter28ElementTypesSameAndSupportedERKNS_14HloInstructionEN10tensorflow3gtl10ArraySliceIPS3_EENS7_INS_13PrimitiveTypeEEE|xla::cpu::IrEmitter::ElementTypesSameAndSupported
_ZN3xla3cpu9IrEmitter21EmitArrayFunctionCallEPN4llvm8FunctionERKNS_5ShapeExN10tensorflow3gtl10ArraySliceIPNS2_5ValueEEENS8_11StringPieceE|xla::cpu::IrEmitter::EmitArrayFunctionCall
_ZN3xla3cpu9IrEmitter25EmitArrayFunctionCallIntoEPN4llvm8FunctionEN10tensorflow3gtl10ArraySliceIPNS2_5ValueEEES9_NS5_11StringPieceE|xla::cpu::IrEmitter::EmitArrayFunctionCallInto
_ZN3xla3cpu9IrEmitter15EmitComputationEPNS_14HloComputationERKSsbPSt6vectorIPKNS_14HloInstructionESaIS9_EE|xla::cpu::IrEmitter::EmitComputation
_ZN3xla3cpu9IrEmitter23EmitElementFunctionCallEPN4llvm8FunctionERKNS_5ShapeEN10tensorflow3gtl10ArraySliceIPNS2_5ValueEEENS8_11StringPieceE|xla::cpu::IrEmitter::EmitElementFunctionCall
_ZN3xla3cpu9IrEmitter19EmitFastConcatenateEPNS_14HloInstructionEN10tensorflow3gtl10ArraySliceIS3_EEPSs|xla::cpu::IrEmitter::EmitFastConcatenate
_ZN3xla3cpu9IrEmitter35EmitInnerLoopForVectorizedReductionERKSt8functionIFPN4llvm5ValueEPNS3_9IRBuilderINS3_14ConstantFolderENS3_24IRBuilderDefaultIns8816630|xla::cpu::IrEmitter::EmitInnerLoopForVectorizedReduction
_ZN3xla3cpu9IrEmitter10EmitMemcpyERKNS_14HloInstructionES4_|xla::cpu::IrEmitter::EmitMemcpy
_ZN3xla3cpu9IrEmitter14EmitScalarCallENS_13PrimitiveTypeEPNS_14HloComputationERKSt6vectorIPN4llvm5ValueESaIS8_EEN10tensorflow11StringPieceE|xla::cpu::IrEmitter::EmitScalarCall
_ZN3xla3cpu9IrEmitter22EmitShardedVectorStoreEPN4llvm5ValueERKSt6vectorIS4_SaIS4_EEiRKNS_7llvm_ir7IrArrayE|xla::cpu::IrEmitter::EmitShardedVectorStore
_ZN3xla3cpu9IrEmitter22EmitTargetAddressForOpEPKNS_14HloInstructionE|xla::cpu::IrEmitter::EmitTargetAddressForOp
_ZN3xla3cpu9IrEmitter21EmitTargetElementLoopEPNS_14HloInstructionERKSt8functionIFNS_8StatusOrIPN4llvm5ValueEEERKNS_7llvm_ir7IrArray5IndexEEE|xla::cpu::IrEmitter::EmitTargetElementLoop
_ZN3xla3cpu9IrEmitter21EmitTempBufferPointerERKNS_16BufferAllocation5SliceERKNS_5ShapeE|xla::cpu::IrEmitter::EmitTempBufferPointer
_ZN3xla3cpu9IrEmitter20EmitTransferElementsEPN4llvm5ValueES4_xNS_13PrimitiveTypeERKNS_7llvm_ir7IrArrayES9_|xla::cpu::IrEmitter::EmitTransferElements
_ZN3xla3cpu9IrEmitter20EmitVectorizedReduceEPNS_14HloInstructionES3_S3_N10tensorflow3gtl10ArraySliceIxEEPNS_14HloComputationEPSs|xla::cpu::IrEmitter::EmitVectorizedReduce
_ZN3xla3cpu9IrEmitter17EmitXfeedTransferENS1_9XfeedKindERKNS_5ShapeEPN4llvm5ValueE|xla::cpu::IrEmitter::EmitXfeedTransfer
_ZN3xla3cpu9IrEmitter11FinishVisitEPNS_14HloInstructionE|xla::cpu::IrEmitter::FinishVisit
_ZN3xla3cpu9IrEmitter18GetEmittedValueForEPKNS_14HloInstructionE|xla::cpu::IrEmitter::GetEmittedValueFor
_ZN3xla3cpu9IrEmitter31GetExecutableRunOptionsArgumentEv|xla::cpu::IrEmitter::GetExecutableRunOptionsArgument
_ZN3xla3cpu9IrEmitter13GetIrArrayForEPKNS_14HloInstructionE|xla::cpu::IrEmitter::GetIrArrayFor
_ZN3xla3cpu9IrEmitter24GetIrArraysForOperandsOfEPKNS_14HloInstructionE|xla::cpu::IrEmitter::GetIrArraysForOperandsOf
_ZN3xla3cpu9IrEmitter23GetProfileCounterCommonERKT_RKSt13unordered_mapIPS3_xSt4hashIS6_ESt8equal_toIS6_ESaISt4pairIKS6_xEEE|xla::cpu::IrEmitter::GetProfileCounterCommon
_ZN3xla3cpu9IrEmitter26GetProfileCountersArgumentEv|xla::cpu::IrEmitter::GetProfileCountersArgument
_ZN3xla3cpu9IrEmitter22GetTempBuffersArgumentEv|xla::cpu::IrEmitter::GetTempBuffersArgument
_ZN3xla3cpu9IrEmitter13HandleBitcastEPNS_14HloInstructionE|xla::cpu::IrEmitter::HandleBitcast
_ZN3xla3cpu9IrEmitter10HandleCallEPNS_14HloInstructionE|xla::cpu::IrEmitter::HandleCall
_ZN3xla3cpu9IrEmitter17HandleConcatenateEPNS_14HloInstructionE|xla::cpu::IrEmitter::HandleConcatenate
_ZN3xla3cpu9IrEmitter17HandleConditionalEPNS_14HloInstructionE|xla::cpu::IrEmitter::HandleConditional
_ZN3xla3cpu9IrEmitter14HandleConstantEPNS_14HloInstructionE|xla::cpu::IrEmitter::HandleConstant
_ZN3xla3cpu9IrEmitter17HandleConvolutionEPNS_14HloInstructionE|xla::cpu::IrEmitter::HandleConvolution
_ZN3xla3cpu9IrEmitter10HandleCopyEPNS_14HloInstructionE|xla::cpu::IrEmitter::HandleCopy
_ZN3xla3cpu9IrEmitter21HandleCrossReplicaSumEPNS_14HloInstructionE|xla::cpu::IrEmitter::HandleCrossReplicaSum
_ZN3xla3cpu9IrEmitter16HandleCustomCallEPNS_14HloInstructionE|xla::cpu::IrEmitter::HandleCustomCall
_ZN3xla3cpu9IrEmitter9HandleDotEPNS_14HloInstructionE|xla::cpu::IrEmitter::HandleDot
_ZN3xla3cpu9IrEmitter18HandleDynamicSliceEPNS_14HloInstructionE|xla::cpu::IrEmitter::HandleDynamicSlice
_ZN3xla3cpu9IrEmitter24HandleDynamicUpdateSliceEPNS_14HloInstructionE|xla::cpu::IrEmitter::HandleDynamicUpdateSlice
_ZN3xla3cpu9IrEmitter9HandleFftEPNS_14HloInstructionE|xla::cpu::IrEmitter::HandleFft
_ZN3xla3cpu9IrEmitter12HandleFusionEPNS_14HloInstructionE|xla::cpu::IrEmitter::HandleFusion
_ZN3xla3cpu9IrEmitter21HandleGetTupleElementEPNS_14HloInstructionE|xla::cpu::IrEmitter::HandleGetTupleElement
_ZN3xla3cpu9IrEmitter12HandleInfeedEPNS_14HloInstructionE|xla::cpu::IrEmitter::HandleInfeed
_ZN3xla3cpu9IrEmitter9HandleMapEPNS_14HloInstructionE|xla::cpu::IrEmitter::HandleMap
_ZN3xla3cpu9IrEmitter13HandleOutfeedEPNS_14HloInstructionE|xla::cpu::IrEmitter::HandleOutfeed
_ZN3xla3cpu9IrEmitter9HandlePadEPNS_14HloInstructionE|xla::cpu::IrEmitter::HandlePad
_ZN3xla3cpu9IrEmitter15HandleParameterEPNS_14HloInstructionE|xla::cpu::IrEmitter::HandleParameter
_ZN3xla3cpu9IrEmitter10HandleRecvEPNS_14HloInstructionE|xla::cpu::IrEmitter::HandleRecv
_ZN3xla3cpu9IrEmitter14HandleRecvDoneEPNS_14HloInstructionE|xla::cpu::IrEmitter::HandleRecvDone
_ZN3xla3cpu9IrEmitter12HandleReduceEPNS_14HloInstructionE|xla::cpu::IrEmitter::HandleReduce
_ZN3xla3cpu9IrEmitter18HandleReduceWindowEPNS_14HloInstructionE|xla::cpu::IrEmitter::HandleReduceWindow
_ZN3xla3cpu9IrEmitter12HandleSelectEPNS_14HloInstructionE|xla::cpu::IrEmitter::HandleSelect
_ZN3xla3cpu9IrEmitter22HandleSelectAndScatterEPNS_14HloInstructionE|xla::cpu::IrEmitter::HandleSelectAndScatter
_ZN3xla3cpu9IrEmitter10HandleSendEPNS_14HloInstructionE|xla::cpu::IrEmitter::HandleSend
_ZN3xla3cpu9IrEmitter14HandleSendDoneEPNS_14HloInstructionE|xla::cpu::IrEmitter::HandleSendDone
_ZN3xla3cpu9IrEmitter11HandleSliceEPNS_14HloInstructionE|xla::cpu::IrEmitter::HandleSlice
_ZN3xla3cpu9IrEmitter10HandleSortEPNS_14HloInstructionE|xla::cpu::IrEmitter::HandleSort
_ZN3xla3cpu9IrEmitter11HandleTupleEPNS_14HloInstructionE|xla::cpu::IrEmitter::HandleTuple
_ZN3xla3cpu9IrEmitter11HandleWhileEPNS_14HloInstructionE|xla::cpu::IrEmitter::HandleWhile
_ZN3xla3cpu9IrEmitter20InitializeIrFunctionERKSs|xla::cpu::IrEmitter::InitializeIrFunction
_ZN3xla3cpu9IrEmitterC1ERKNS_9HloModuleERKNS_16BufferAssignmentEPN4llvm6ModuleESt13unordered_mapIPKNS_14HloInstructionExSt4hashISE_ESt8equal_toISE_ESa3683279|xla::cpu::IrEmitter::IrEmitter
_ZN3xla3cpu9IrEmitter11IrShapeTypeERKNS_5ShapeE|xla::cpu::IrEmitter::IrShapeType
_ZNK3xla3cpu9IrEmitter23MatchReductionGeneratorEPNS_14HloComputationEPSs|xla::cpu::IrEmitter::MatchReductionGenerator
_ZN3xla3cpu9IrEmitter29MinimumAlignmentForBufferSizeEx|xla::cpu::IrEmitter::MinimumAlignmentForBufferSize
_ZN3xla3cpu9IrEmitter32MinimumAlignmentForPrimitiveTypeENS_13PrimitiveTypeE|xla::cpu::IrEmitter::MinimumAlignmentForPrimitiveType
_ZN3xla3cpu9IrEmitter24MinimumAlignmentForShapeERKNS_5ShapeE|xla::cpu::IrEmitter::MinimumAlignmentForShape
_ZN3xla3cpu9IrEmitter11PostprocessEPNS_14HloInstructionE|xla::cpu::IrEmitter::Postprocess
_ZN3xla3cpu9IrEmitter10PreprocessEPNS_14HloInstructionE|xla::cpu::IrEmitter::Preprocess
_ZN3xla3cpu9IrEmitterD1Ev|xla::cpu::IrEmitter::~IrEmitter
_ZN3xla3cpu10IrFunction19GetDynamicLoopBoundEx|xla::cpu::IrFunction::GetDynamicLoopBound
_ZN3xla3cpu10IrFunction20GetDynamicLoopBoundsEv|xla::cpu::IrFunction::GetDynamicLoopBounds
_ZN3xla3cpu10IrFunction10InitializeERKSsN4llvm11GlobalValue12LinkageTypesEbb|xla::cpu::IrFunction::Initialize
_ZN3xla3cpu10IrFunctionC1ERKSsN4llvm11GlobalValue12LinkageTypesEbbPNS4_6ModuleEPNS4_9IRBuilderINS4_14ConstantFolderENS4_24IRBuilderDefaultInserterEEEx|xla::cpu::IrFunction::IrFunction
_ZN3xla3cpu10IrFunctionD1Ev|xla::cpu::IrFunction::~IrFunction
_ZNK3xla7llvm_ir7IrArray40AnnotateLoadStoreInstructionWithMetadataEPN4llvm11InstructionE|xla::llvm_ir::IrArray::AnnotateLoadStoreInstructionWithMetadata
_ZN3xla7llvm_ir7IrArray9BumpIndexERKNS1_5IndexExxPN4llvm9IRBuilderINS5_14ConstantFolderENS5_24IRBuilderDefaultInserterEEE|xla::llvm_ir::IrArray::BumpIndex
_ZNK3xla7llvm_ir7IrArray11CastToShapeERKNS_5ShapeEPN4llvm9IRBuilderINS5_14ConstantFolderENS5_24IRBuilderDefaultInserterEEE|xla::llvm_ir::IrArray::CastToShape
_ZNK3xla7llvm_ir7IrArray23EmitArrayElementAddressERKNS1_5IndexEPN4llvm9IRBuilderINS5_14ConstantFolderENS5_24IRBuilderDefaultInserterEEEN10tensorflow11StringPieceE|xla::llvm_ir::IrArray::EmitArrayElementAddress
_ZNK3xla7llvm_ir7IrArray20EmitReadArrayElementERKNS1_5IndexEPN4llvm9IRBuilderINS5_14ConstantFolderENS5_24IRBuilderDefaultInserterEEEN10tensorflow11StringPieceE|xla::llvm_ir::IrArray::EmitReadArrayElement
_ZNK3xla7llvm_ir7IrArray21EmitWriteArrayElementERKNS1_5IndexEPN4llvm5ValueEPNS5_9IRBuilderINS5_14ConstantFolderENS5_24IRBuilderDefaultInserterEEE|xla::llvm_ir::IrArray::EmitWriteArrayElement
_ZN3xla7llvm_ir7IrArrayC1EPN4llvm5ValueERKNS_5ShapeE|xla::llvm_ir::IrArray::IrArray
_ZN3xla7llvm_ir6IrNameESs|xla::llvm_ir::IrName
_ZN10tensorflow25IRemoteFusedGraphExecutorC1ERKS0_|tensorflow::IRemoteFusedGraphExecutor::IRemoteFusedGraphExecutor
_ZN10tensorflow31IRemoteFusedGraphOpsDefinitionsC1ERKS0_|tensorflow::IRemoteFusedGraphOpsDefinitions::IRemoteFusedGraphOpsDefinitions
